; Function Attrs: mustprogress nofree nounwind willreturn memory(readwrite, inaccessiblemem: write) uwtable
define noundef double @_ZN5Ipopt21PDPerturbationHandler8delta_cdEv(ptr nocapture noundef nonnull readonly align 8 dereferenceable(217) %0) local_unnamed_addr #5 align 2 {
  %2 = getelementptr inbounds i8, ptr %0, i64 192
  %3 = load double, ptr %2, align 8
  %4 = getelementptr inbounds i8, ptr %0, i64 32
  %5 = load ptr, ptr %4, align 8
  %6 = getelementptr inbounds i8, ptr %5, i64 72
  %7 = load double, ptr %6, align 8
  %8 = getelementptr inbounds i8, ptr %0, i64 200
  %9 = load double, ptr %8, align 8
  %10 = tail call double @pow(double noundef %7, double noundef %9) #14
  %11 = fmul double %3, %10
  ret double %11
}